target datalayout = "e-m:e-p270:32:32-p271:32:32-p272:64:64-i64:64-i128:128-f80:128-n8:16:32:64-S128"
target triple = "x86_64-pc-linux-gnu"

%struct.OSSL_TIME = type { i64 }
%struct.ssl_st = type { i32, ptr, ptr, ptr, %struct.CRYPTO_REF_COUNT, ptr, %struct.crypto_ex_data_st }
%struct.CRYPTO_REF_COUNT = type { i32 }
%struct.crypto_ex_data_st = type { ptr, ptr }
%struct.ssl_method_st = type { i32, i32, i64, ptr, ptr, ptr, ptr, ptr, ptr, ptr, ptr, ptr, ptr, ptr, ptr, ptr, ptr, ptr, ptr, ptr, ptr, ptr, ptr, ptr, ptr, ptr, ptr, ptr, ptr, ptr, ptr, ptr }
%struct.ssl_connection_st = type { %struct.ssl_st, ptr, i32, ptr, ptr, ptr, i32, ptr, i32, i32, i32, i32, %struct.OSSL_TIME, %struct.OSSL_TIME, %struct.ossl_statem_st, i32, ptr, ptr, i64, i64, i64, %struct.ossl_quic_tls_callbacks_st, ptr, ptr, %struct.anon, ptr, ptr, ptr, i32, ptr, %struct.ssl_dane_st, ptr, ptr, ptr, ptr, i32, [64 x i8], [64 x i8], [64 x i8], [64 x i8], [64 x i8], [64 x i8], [64 x i8], [64 x i8], [64 x i8], [64 x i8], [64 x i8], [64 x i8], ptr, [64 x i8], i64, i32, i64, [32 x i8], ptr, ptr, ptr, i64, ptr, [32 x i8], i64, i32, ptr, ptr, i32, i32, ptr, ptr, ptr, ptr, ptr, i64, ptr, ptr, i64, i32, i32, i32, i64, i32, i32, i64, i64, i64, %struct.anon.1, ptr, i32, ptr, ptr, ptr, i32, ptr, ptr, ptr, i32, i32, i32, i32, ptr, i64, i32, ptr, %struct.srp_ctx_st, ptr, %struct.record_layer_st, ptr, ptr, ptr, ptr, i64, i32, i32, i32, i64, i64, i64, ptr, ptr, ptr, ptr, ptr, i64, ptr, i64, ptr, i64 }
%struct.ossl_statem_st = type { i32, i32, i32, i32, i32, i32, i32, i32, i32, i32, i32, i32, i32, ptr, ptr, ptr, i8 }
%struct.ossl_quic_tls_callbacks_st = type { ptr, ptr, ptr, ptr, ptr, ptr }
%struct.anon = type { i64, [32 x i8], [32 x i8], ptr, ptr, i32, i32, i32, i32, [2 x i8], i32, i32, i32, i32, %struct.anon.0, [64 x i8], i64, [64 x i8], i64, i32, i32, ptr, i64, ptr, i64, i32, i8, i8, i16, ptr, i16 }
%struct.anon.0 = type { [128 x i8], i64, [128 x i8], i64, i64, i32, ptr, ptr, [4 x ptr], [4 x i16], i64, i32, ptr, i64, ptr, i64, ptr, ptr, ptr, i32, i64, ptr, i32, ptr, i64, ptr, i64, ptr, i64, ptr, ptr, ptr, ptr, i64, i64, ptr, ptr, i32, i32, i32, i32 }
%struct.ssl_dane_st = type { ptr, ptr, ptr, ptr, ptr, i32, i32, i32, i64 }
%struct.anon.1 = type { [29 x i8], ptr, ptr, ptr, i32, ptr, i16, i32, %struct.anon.2, i32, i32, i64, ptr, i64, ptr, i64, ptr, i64, ptr, i64, ptr, i64, ptr, ptr, ptr, ptr, ptr, ptr, ptr, i64, ptr, i64, i32, i32, i32, i32, ptr, i64, i32, i8, i32, [4 x i32], i32, i8, i8, i8, i8 }
%struct.anon.2 = type { ptr, ptr, ptr, i64 }
%struct.srp_ctx_st = type { ptr, ptr, ptr, ptr, ptr, ptr, ptr, ptr, ptr, ptr, ptr, ptr, ptr, ptr, i32, i64 }
%struct.record_layer_st = type { ptr, ptr, ptr, ptr, ptr, ptr, ptr, ptr, i64, i32, i64, [4 x i8], i64, i64, i8, ptr, i32, ptr, ptr, ptr, i64, i64, i64, i64, [32 x %struct.tls_record_st] }
%struct.tls_record_st = type { ptr, i32, i8, ptr, ptr, i64, i64, i16, [8 x i8] }
%struct.ssl_ctx_st = type { ptr, ptr, ptr, ptr, ptr, ptr, ptr, i64, ptr, ptr, i32, %struct.OSSL_TIME, ptr, ptr, ptr, %struct.anon.3, %struct.CRYPTO_REF_COUNT, ptr, ptr, ptr, ptr, ptr, ptr, ptr, ptr, ptr, %struct.crypto_ex_data_st, ptr, ptr, ptr, ptr, ptr, ptr, ptr, i64, i32, i32, i32, i64, ptr, ptr, i32, ptr, ptr, i32, i64, [32 x i8], ptr, ptr, ptr, i32, ptr, ptr, ptr, i64, i64, i64, i64, ptr, ptr, ptr, ptr, ptr, %struct.anon.4, ptr, ptr, ptr, ptr, %struct.srp_ctx_st, %struct.dane_ctx_st, ptr, ptr, ptr, ptr, i32, i32, ptr, ptr, i64, i64, ptr, ptr, ptr, i64, ptr, ptr, i32, ptr, ptr, ptr, [14 x i32], [24 x ptr], [14 x ptr], [14 x i64], i64, ptr, ptr, ptr, i64, i64, ptr, i64, i64, i32, i32, i32, i32, ptr, i64, ptr, i64, i64, ptr, ptr }
%struct.anon.3 = type { i32, i32, i32, i32, i32, i32, i32, i32, i32, i32, i32 }
%struct.anon.4 = type { ptr, ptr, [16 x i8], ptr, ptr, ptr, ptr, ptr, i32, i8, i64, ptr, i64, ptr, i64, ptr, i64, ptr, ptr, i64, ptr, ptr, ptr, i64, ptr, ptr, ptr, ptr, [32 x i8] }
%struct.dane_ctx_st = type { ptr, ptr, i8, i64 }
%struct.ssl3_enc_method = type { ptr, ptr, ptr, ptr, ptr, i64, ptr, i64, ptr, ptr, i32, ptr, ptr, ptr }
%struct.sigalg_lookup_st = type { ptr, i16, i32, i32, i32, i32, i32, i32, i32 }

; Function Attrs: nounwind uwtable
define internal ptr @tls1_lookup_sigalg(ptr noundef %0, i16 noundef zeroext %1) #1 {
  %3 = alloca ptr, align 8
  %4 = alloca ptr, align 8
  %5 = alloca i16, align 2
  %6 = alloca i64, align 8
  %7 = alloca ptr, align 8
  %8 = alloca i32, align 4
  store ptr %0, ptr %4, align 8, !tbaa !25
  store i16 %1, ptr %5, align 2, !tbaa !100
  call void @llvm.lifetime.start.p0(i64 8, ptr %6) #8
  call void @llvm.lifetime.start.p0(i64 8, ptr %7) #8
  store i64 0, ptr %6, align 8, !tbaa !3
  %9 = load ptr, ptr %4, align 8, !tbaa !25
  %10 = getelementptr inbounds nuw %struct.ssl_connection_st, ptr %9, i32 0, i32 0
  %11 = getelementptr inbounds nuw %struct.ssl_st, ptr %10, i32 0, i32 1
  %12 = load ptr, ptr %11, align 8, !tbaa !137
  %13 = getelementptr inbounds nuw %struct.ssl_ctx_st, ptr %12, i32 0, i32 95
  %14 = load ptr, ptr %13, align 8, !tbaa !224
  store ptr %14, ptr %7, align 8, !tbaa !201
  br label %15

15:                                               ; preds = %41, %2
  %16 = load i64, ptr %6, align 8, !tbaa !3
  %17 = load ptr, ptr %4, align 8, !tbaa !25
  %18 = getelementptr inbounds nuw %struct.ssl_connection_st, ptr %17, i32 0, i32 0
  %19 = getelementptr inbounds nuw %struct.ssl_st, ptr %18, i32 0, i32 1
  %20 = load ptr, ptr %19, align 8, !tbaa !137
  %21 = getelementptr inbounds nuw %struct.ssl_ctx_st, ptr %20, i32 0, i32 94
  %22 = load i64, ptr %21, align 8, !tbaa !226
  %23 = icmp ult i64 %16, %22
  br i1 %23, label %24, label %46

24:                                               ; preds = %15
  %25 = load ptr, ptr %7, align 8, !tbaa !201
  %26 = getelementptr inbounds nuw %struct.sigalg_lookup_st, ptr %25, i32 0, i32 1
  %27 = load i16, ptr %26, align 8, !tbaa !218
  %28 = zext i16 %27 to i32
  %29 = load i16, ptr %5, align 2, !tbaa !100
  %30 = zext i16 %29 to i32
  %31 = icmp eq i32 %28, %30
  br i1 %31, label %32, label %40

32:                                               ; preds = %24
  %33 = load ptr, ptr %7, align 8, !tbaa !201
  %34 = getelementptr inbounds nuw %struct.sigalg_lookup_st, ptr %33, i32 0, i32 8
  %35 = load i32, ptr %34, align 4, !tbaa !208
  %36 = icmp ne i32 %35, 0
  br i1 %36, label %38, label %37

37:                                               ; preds = %32
  store ptr null, ptr %3, align 8
  store i32 1, ptr %8, align 4
  br label %47

38:                                               ; preds = %32
  %39 = load ptr, ptr %7, align 8, !tbaa !201
  store ptr %39, ptr %3, align 8
  store i32 1, ptr %8, align 4
  br label %47

40:                                               ; preds = %24
  br label %41

41:                                               ; preds = %40
  %42 = load ptr, ptr %7, align 8, !tbaa !201
  %43 = getelementptr inbounds nuw %struct.sigalg_lookup_st, ptr %42, i32 1
  store ptr %43, ptr %7, align 8, !tbaa !201
  %44 = load i64, ptr %6, align 8, !tbaa !3
  %45 = add i64 %44, 1
  store i64 %45, ptr %6, align 8, !tbaa !3
  br label %15, !llvm.loop !245

46:                                               ; preds = %15
  store ptr null, ptr %3, align 8
  store i32 1, ptr %8, align 4
  br label %47

47:                                               ; preds = %46, %38, %37
  call void @llvm.lifetime.end.p0(i64 8, ptr %7) #8
  call void @llvm.lifetime.end.p0(i64 8, ptr %6) #8
  %48 = load ptr, ptr %3, align 8
  ret ptr %48
}

; Function Attrs: nounwind uwtable
define internal i32 @tls1_check_sig_alg(ptr noundef %0, ptr noundef %1, i32 noundef %2) #1 {
  %4 = alloca i32, align 4
  %5 = alloca ptr, align 8
  %6 = alloca ptr, align 8
  %7 = alloca i32, align 4
  %8 = alloca i32, align 4
  %9 = alloca i32, align 4
  %10 = alloca i64, align 8
  %11 = alloca ptr, align 8
  %12 = alloca i64, align 8
  %13 = alloca i32, align 4
  store ptr %0, ptr %5, align 8, !tbaa !25
  store ptr %1, ptr %6, align 8, !tbaa !334
  store i32 %2, ptr %7, align 4, !tbaa !128
  call void @llvm.lifetime.start.p0(i64 4, ptr %8) #8
  call void @llvm.lifetime.start.p0(i64 4, ptr %9) #8
  store i32 0, ptr %9, align 4, !tbaa !128
  call void @llvm.lifetime.start.p0(i64 8, ptr %10) #8
  call void @llvm.lifetime.start.p0(i64 8, ptr %11) #8
  call void @llvm.lifetime.start.p0(i64 8, ptr %12) #8
  %14 = load i32, ptr %7, align 4, !tbaa !128
  %15 = icmp eq i32 %14, -1
  br i1 %15, label %16, label %17

16:                                               ; preds = %3
  store i32 1, ptr %4, align 4
  store i32 1, ptr %13, align 4
  br label %113

17:                                               ; preds = %3
  %18 = load ptr, ptr %6, align 8, !tbaa !334
  %19 = call i32 @X509_get_signature_nid(ptr noundef %18)
  store i32 %19, ptr %8, align 4, !tbaa !128
  %20 = load i32, ptr %7, align 4, !tbaa !128
  %21 = icmp ne i32 %20, 0
  br i1 %21, label %22, label %27

22:                                               ; preds = %17
  %23 = load i32, ptr %8, align 4, !tbaa !128
  %24 = load i32, ptr %7, align 4, !tbaa !128
  %25 = icmp eq i32 %23, %24
  %26 = select i1 %25, i32 1, i32 0
  store i32 %26, ptr %4, align 4
  store i32 1, ptr %13, align 4
  br label %113

27:                                               ; preds = %17
  %28 = load ptr, ptr %5, align 8, !tbaa !25
  %29 = getelementptr inbounds nuw %struct.ssl_connection_st, ptr %28, i32 0, i32 0
  %30 = getelementptr inbounds nuw %struct.ssl_st, ptr %29, i32 0, i32 3
  %31 = load ptr, ptr %30, align 8, !tbaa !152
  %32 = getelementptr inbounds nuw %struct.ssl_method_st, ptr %31, i32 0, i32 28
  %33 = load ptr, ptr %32, align 8, !tbaa !153
  %34 = getelementptr inbounds nuw %struct.ssl3_enc_method, ptr %33, i32 0, i32 10
  %35 = load i32, ptr %34, align 8, !tbaa !154
  %36 = and i32 %35, 8
  %37 = icmp ne i32 %36, 0
  br i1 %37, label %67, label %38

38:                                               ; preds = %27
  %39 = load ptr, ptr %5, align 8, !tbaa !25
  %40 = getelementptr inbounds nuw %struct.ssl_connection_st, ptr %39, i32 0, i32 0
  %41 = getelementptr inbounds nuw %struct.ssl_st, ptr %40, i32 0, i32 3
  %42 = load ptr, ptr %41, align 8, !tbaa !152
  %43 = getelementptr inbounds nuw %struct.ssl_method_st, ptr %42, i32 0, i32 0
  %44 = load i32, ptr %43, align 8, !tbaa !78
  %45 = icmp sge i32 %44, 772
  br i1 %45, label %46, label %67

46:                                               ; preds = %38
  %47 = load ptr, ptr %5, align 8, !tbaa !25
  %48 = getelementptr inbounds nuw %struct.ssl_connection_st, ptr %47, i32 0, i32 0
  %49 = getelementptr inbounds nuw %struct.ssl_st, ptr %48, i32 0, i32 3
  %50 = load ptr, ptr %49, align 8, !tbaa !152
  %51 = getelementptr inbounds nuw %struct.ssl_method_st, ptr %50, i32 0, i32 0
  %52 = load i32, ptr %51, align 8, !tbaa !78
  %53 = icmp ne i32 %52, 65536
  br i1 %53, label %54, label %67

54:                                               ; preds = %46
  %55 = load ptr, ptr %5, align 8, !tbaa !25
  %56 = getelementptr inbounds nuw %struct.ssl_connection_st, ptr %55, i32 0, i32 24
  %57 = getelementptr inbounds nuw %struct.anon, ptr %56, i32 0, i32 14
  %58 = getelementptr inbounds nuw %struct.anon.0, ptr %57, i32 0, i32 32
  %59 = load ptr, ptr %58, align 8, !tbaa !270
  %60 = icmp ne ptr %59, null
  br i1 %60, label %61, label %67

61:                                               ; preds = %54
  %62 = load ptr, ptr %5, align 8, !tbaa !25
  %63 = getelementptr inbounds nuw %struct.ssl_connection_st, ptr %62, i32 0, i32 24
  %64 = getelementptr inbounds nuw %struct.anon, ptr %63, i32 0, i32 14
  %65 = getelementptr inbounds nuw %struct.anon.0, ptr %64, i32 0, i32 34
  %66 = load i64, ptr %65, align 8, !tbaa !351
  store i64 %66, ptr %12, align 8, !tbaa !3
  store i32 1, ptr %9, align 4, !tbaa !128
  br label %71

67:                                               ; preds = %54, %46, %38, %27
  %68 = load ptr, ptr %5, align 8, !tbaa !25
  %69 = getelementptr inbounds nuw %struct.ssl_connection_st, ptr %68, i32 0, i32 121
  %70 = load i64, ptr %69, align 8, !tbaa !268
  store i64 %70, ptr %12, align 8, !tbaa !3
  br label %71

71:                                               ; preds = %67, %61
  store i64 0, ptr %10, align 8, !tbaa !3
  br label %72

72:                                               ; preds = %109, %71
  %73 = load i64, ptr %10, align 8, !tbaa !3
  %74 = load i64, ptr %12, align 8, !tbaa !3
  %75 = icmp ult i64 %73, %74
  br i1 %75, label %76, label %112

76:                                               ; preds = %72
  %77 = load i32, ptr %9, align 4, !tbaa !128
  %78 = icmp ne i32 %77, 0
  br i1 %78, label %79, label %90

79:                                               ; preds = %76
  %80 = load ptr, ptr %5, align 8, !tbaa !25
  %81 = load ptr, ptr %5, align 8, !tbaa !25
  %82 = getelementptr inbounds nuw %struct.ssl_connection_st, ptr %81, i32 0, i32 24
  %83 = getelementptr inbounds nuw %struct.anon, ptr %82, i32 0, i32 14
  %84 = getelementptr inbounds nuw %struct.anon.0, ptr %83, i32 0, i32 32
  %85 = load ptr, ptr %84, align 8, !tbaa !270
  %86 = load i64, ptr %10, align 8, !tbaa !3
  %87 = getelementptr inbounds nuw i16, ptr %85, i64 %86
  %88 = load i16, ptr %87, align 2, !tbaa !100
  %89 = call ptr @tls1_lookup_sigalg(ptr noundef %80, i16 noundef zeroext %88)
  br label %97

90:                                               ; preds = %76
  %91 = load ptr, ptr %5, align 8, !tbaa !25
  %92 = getelementptr inbounds nuw %struct.ssl_connection_st, ptr %91, i32 0, i32 120
  %93 = load ptr, ptr %92, align 8, !tbaa !267
  %94 = load i64, ptr %10, align 8, !tbaa !3
  %95 = getelementptr inbounds nuw ptr, ptr %93, i64 %94
  %96 = load ptr, ptr %95, align 8, !tbaa !201
  br label %97

97:                                               ; preds = %90, %79
  %98 = phi ptr [ %89, %79 ], [ %96, %90 ]
  store ptr %98, ptr %11, align 8, !tbaa !201
  %99 = load ptr, ptr %11, align 8, !tbaa !201
  %100 = icmp ne ptr %99, null
  br i1 %100, label %101, label %108

101:                                              ; preds = %97
  %102 = load i32, ptr %8, align 4, !tbaa !128
  %103 = load ptr, ptr %11, align 8, !tbaa !201
  %104 = getelementptr inbounds nuw %struct.sigalg_lookup_st, ptr %103, i32 0, i32 6
  %105 = load i32, ptr %104, align 4, !tbaa !221
  %106 = icmp eq i32 %102, %105
  br i1 %106, label %107, label %108

107:                                              ; preds = %101
  store i32 1, ptr %4, align 4
  store i32 1, ptr %13, align 4
  br label %113

108:                                              ; preds = %101, %97
  br label %109

109:                                              ; preds = %108
  %110 = load i64, ptr %10, align 8, !tbaa !3
  %111 = add i64 %110, 1
  store i64 %111, ptr %10, align 8, !tbaa !3
  br label %72, !llvm.loop !352

112:                                              ; preds = %72
  store i32 0, ptr %4, align 4
  store i32 1, ptr %13, align 4
  br label %113

113:                                              ; preds = %112, %107, %22, %16
  call void @llvm.lifetime.end.p0(i64 8, ptr %12) #8
  call void @llvm.lifetime.end.p0(i64 8, ptr %11) #8
  call void @llvm.lifetime.end.p0(i64 8, ptr %10) #8
  call void @llvm.lifetime.end.p0(i64 4, ptr %9) #8
  call void @llvm.lifetime.end.p0(i64 4, ptr %8) #8
  %114 = load i32, ptr %4, align 4
  ret i32 %114
}