; Function Attrs: nounwind uwtable
define internal fastcc range(i32 0, 2) i32 @tls1_check_sig_alg(ptr noundef readonly captures(none) %0, ptr noundef %1, i32 noundef range(i32 -1, 987) %2) unnamed_addr #2 {
  %4 = icmp eq i32 %2, -1
  br i1 %4, label %.loopexit, label %5

5:                                                ; preds = %3
  %6 = tail call i32 @X509_get_signature_nid(ptr noundef %1) #14
  %.not = icmp eq i32 %2, 0
  br i1 %.not, label %10, label %7

7:                                                ; preds = %5
  %8 = icmp eq i32 %6, %2
  %9 = zext i1 %8 to i32
  br label %.loopexit

10:                                               ; preds = %5
  %11 = getelementptr inbounds nuw i8, ptr %0, i64 24
  %12 = load ptr, ptr %11, align 8, !tbaa !136
  %13 = getelementptr inbounds nuw i8, ptr %12, i64 216
  %14 = load ptr, ptr %13, align 8, !tbaa !137
  %15 = getelementptr inbounds nuw i8, ptr %14, i64 80
  %16 = load i32, ptr %15, align 8, !tbaa !138
  %17 = and i32 %16, 8
  %.not29 = icmp eq i32 %17, 0
  br i1 %.not29, label %18, label %24

18:                                               ; preds = %10
  %19 = load i32, ptr %12, align 8, !tbaa !74
  %20 = icmp slt i32 %19, 772
  %.not30 = icmp eq i32 %19, 65536
  %or.cond = or i1 %20, %.not30
  br i1 %or.cond, label %24, label %21

21:                                               ; preds = %18
  %22 = getelementptr inbounds nuw i8, ptr %0, i64 1000
  %23 = load ptr, ptr %22, align 8, !tbaa !231
  %.not31 = icmp eq ptr %23, null
  br i1 %.not31, label %24, label %.thread

24:                                               ; preds = %10, %18, %21
  %25 = getelementptr inbounds nuw i8, ptr %0, i64 5520
  %.0 = load i64, ptr %25, align 8, !tbaa !105
  %.not45 = icmp eq i64 %.0, 0
  br i1 %.not45, label %.loopexit, label %.lr.ph.split.us

.thread:                                          ; preds = %21
  %26 = getelementptr inbounds nuw i8, ptr %0, i64 1016
  %.053 = load i64, ptr %26, align 8, !tbaa !105
  %.not4554 = icmp eq i64 %.053, 0
  br i1 %.not4554, label %.loopexit, label %.lr.ph.split

.lr.ph.split.us:                                  ; preds = %24
  %27 = getelementptr inbounds nuw i8, ptr %0, i64 5512
  %28 = load ptr, ptr %27, align 8, !tbaa !229
  br label %tls1_lookup_sigalg.exit.us

tls1_lookup_sigalg.exit.us:                       ; preds = %tls1_lookup_sigalg.exit.thread.us, %.lr.ph.split.us
  %.02438.us = phi i64 [ 0, %.lr.ph.split.us ], [ %34, %tls1_lookup_sigalg.exit.thread.us ]
  %29 = getelementptr inbounds nuw ptr, ptr %28, i64 %.02438.us
  %30 = load ptr, ptr %29, align 8, !tbaa !238
  %.not33.us = icmp eq ptr %30, null
  br i1 %.not33.us, label %tls1_lookup_sigalg.exit.thread.us, label %tls1_lookup_sigalg.exit.thread35.us

tls1_lookup_sigalg.exit.thread35.us:              ; preds = %tls1_lookup_sigalg.exit.us
  %31 = getelementptr inbounds nuw i8, ptr %30, i64 28
  %32 = load i32, ptr %31, align 4, !tbaa !189
  %33 = icmp eq i32 %6, %32
  br i1 %33, label %.loopexit, label %tls1_lookup_sigalg.exit.thread.us

tls1_lookup_sigalg.exit.thread.us:                ; preds = %tls1_lookup_sigalg.exit.thread35.us, %tls1_lookup_sigalg.exit.us
  %34 = add nuw i64 %.02438.us, 1
  %exitcond50.not = icmp eq i64 %34, %.0
  br i1 %exitcond50.not, label %.loopexit, label %tls1_lookup_sigalg.exit.us, !llvm.loop !297

.lr.ph.split:                                     ; preds = %.thread
  %35 = getelementptr i8, ptr %0, i64 8
  %36 = getelementptr inbounds nuw i8, ptr %0, i64 1000
  %37 = load ptr, ptr %36, align 8, !tbaa !231
  %.val = load ptr, ptr %35, align 8, !tbaa !126
  %38 = getelementptr inbounds nuw i8, ptr %.val, i64 1632
  %39 = load i64, ptr %38, align 8, !tbaa !194
  %.not4.i = icmp eq i64 %39, 0
  br i1 %.not4.i, label %.loopexit, label %.lr.ph.split.split

.lr.ph.split.split:                               ; preds = %.lr.ph.split
  %40 = getelementptr inbounds nuw i8, ptr %.val, i64 1640
  %41 = load ptr, ptr %40, align 8, !tbaa !192
  br label %.lr.ph.preheader.i

.lr.ph.preheader.i:                               ; preds = %.lr.ph.split.split, %tls1_lookup_sigalg.exit.thread
  %.02438 = phi i64 [ 0, %.lr.ph.split.split ], [ %56, %tls1_lookup_sigalg.exit.thread ]
  %42 = getelementptr inbounds nuw i16, ptr %37, i64 %.02438
  %43 = load i16, ptr %42, align 2, !tbaa !93
  br label %.lr.ph.i

.lr.ph.i:                                         ; preds = %50, %.lr.ph.preheader.i
  %.03.i = phi ptr [ %51, %50 ], [ %41, %.lr.ph.preheader.i ]
  %.092.i = phi i64 [ %52, %50 ], [ 0, %.lr.ph.preheader.i ]
  %44 = getelementptr inbounds nuw i8, ptr %.03.i, i64 8
  %45 = load i16, ptr %44, align 8, !tbaa !187
  %46 = icmp eq i16 %45, %43
  br i1 %46, label %47, label %50

47:                                               ; preds = %.lr.ph.i
  %48 = getelementptr inbounds nuw i8, ptr %.03.i, i64 36
  %49 = load i32, ptr %48, align 4, !tbaa !182
  %.not.i = icmp eq i32 %49, 0
  br i1 %.not.i, label %tls1_lookup_sigalg.exit.thread, label %tls1_lookup_sigalg.exit.thread35

50:                                               ; preds = %.lr.ph.i
  %51 = getelementptr inbounds nuw i8, ptr %.03.i, i64 40
  %52 = add nuw i64 %.092.i, 1
  %exitcond.not.i = icmp eq i64 %52, %39
  br i1 %exitcond.not.i, label %tls1_lookup_sigalg.exit.thread, label %.lr.ph.i, !llvm.loop !206

tls1_lookup_sigalg.exit.thread35:                 ; preds = %47
  %53 = getelementptr inbounds nuw i8, ptr %.03.i, i64 28
  %54 = load i32, ptr %53, align 4, !tbaa !189
  %55 = icmp eq i32 %6, %54
  br i1 %55, label %.loopexit, label %tls1_lookup_sigalg.exit.thread

tls1_lookup_sigalg.exit.thread:                   ; preds = %50, %47, %tls1_lookup_sigalg.exit.thread35
  %56 = add nuw i64 %.02438, 1
  %exitcond.not = icmp eq i64 %56, %.053
  br i1 %exitcond.not, label %.loopexit, label %.lr.ph.preheader.i, !llvm.loop !297

.loopexit:                                        ; preds = %tls1_lookup_sigalg.exit.thread35, %tls1_lookup_sigalg.exit.thread, %tls1_lookup_sigalg.exit.thread35.us, %tls1_lookup_sigalg.exit.thread.us, %.lr.ph.split, %.thread, %24, %3, %7
  %.023 = phi i32 [ %9, %7 ], [ 1, %3 ], [ 0, %24 ], [ 0, %.thread ], [ 0, %.lr.ph.split ], [ 1, %tls1_lookup_sigalg.exit.thread35.us ], [ 0, %tls1_lookup_sigalg.exit.thread.us ], [ 1, %tls1_lookup_sigalg.exit.thread35 ], [ 0, %tls1_lookup_sigalg.exit.thread ]
  ret i32 %.023
}